; Function Attrs: null_pointer_is_valid sspstrong uwtable
define internal i32 @dissect_ngap_PeriodicRegistrationUpdateTimer(ptr noundef %0, i32 noundef %1, ptr noundef %2, ptr noundef %3, i32 noundef %4) #0 {
  %6 = alloca ptr, align 8
  call void @llvm.lifetime.start.p0(i64 8, ptr nonnull %6) #12
  store ptr null, ptr %6, align 8
  %7 = call i32 @dissect_per_bit_string(ptr noundef %0, i32 noundef %1, ptr noundef %2, ptr noundef %3, i32 noundef -1, i32 noundef 8, i32 noundef 8, i1 noundef zeroext false, ptr noundef null, i32 noundef 0, ptr noundef nonnull %6, ptr noundef null)
  %8 = load ptr, ptr %6, align 8
  %.not = icmp eq ptr %8, null
  br i1 %.not, label %15, label %9

9:                                                ; preds = %5
  %10 = call zeroext i8 @tvb_get_uint8(ptr noundef nonnull %8, i32 noundef 0)
  %11 = zext i8 %10 to i32
  %12 = load ptr, ptr %6, align 8
  %13 = call ptr @proto_tree_add_uint(ptr noundef %3, i32 noundef %4, ptr noundef %12, i32 noundef 0, i32 noundef 1, i32 noundef %11)
  %14 = getelementptr inbounds nuw i8, ptr %2, i64 24
  store ptr %13, ptr %14, align 8
  br label %15

15:                                               ; preds = %9, %5
  call void @llvm.lifetime.end.p0(i64 8, ptr nonnull %6) #12
  ret i32 %7
}